; Function Attrs: nounwind uwtable
define dso_local noundef ptr @list_delete_ptr(ptr noundef %0, ptr noundef readnone captures(address) %1) local_unnamed_addr #0 {
  %.not = icmp eq ptr %0, null
  br i1 %.not, label %list_delete_cell.exit, label %.lr.ph

.lr.ph:                                           ; preds = %2
  %3 = getelementptr inbounds nuw i8, ptr %0, i64 4
  %4 = load i32, ptr %3, align 4
  %5 = icmp sgt i32 %4, 0
  br i1 %5, label %.lr.ph29, label %list_delete_cell.exit

.lr.ph29:                                         ; preds = %.lr.ph
  %6 = getelementptr inbounds nuw i8, ptr %0, i64 16
  %7 = load ptr, ptr %6, align 8
  %wide.trip.count = zext nneg i32 %4 to i64
  br label %9

8:                                                ; preds = %9
  %indvars.iv.next = add nuw nsw i64 %indvars.iv, 1
  %exitcond.not = icmp eq i64 %indvars.iv.next, %wide.trip.count
  br i1 %exitcond.not, label %list_delete_cell.exit, label %9

9:                                                ; preds = %.lr.ph29, %8
  %indvars.iv = phi i64 [ 0, %.lr.ph29 ], [ %indvars.iv.next, %8 ]
  %10 = getelementptr inbounds nuw %union.ListCell, ptr %7, i64 %indvars.iv
  %11 = load ptr, ptr %10, align 8
  %12 = icmp eq ptr %11, %1
  br i1 %12, label %.split, label %8

.split:                                           ; preds = %9
  %13 = icmp eq i32 %4, 1
  br i1 %13, label %14, label %17

14:                                               ; preds = %.split
  %15 = getelementptr inbounds nuw i8, ptr %0, i64 24
  %.not.i.i.i.i = icmp eq ptr %7, %15
  br i1 %.not.i.i.i.i, label %list_free.exit.i.i, label %16

16:                                               ; preds = %14
  tail call void @pfree(ptr noundef nonnull %7) #9
  br label %list_free.exit.i.i

list_free.exit.i.i:                               ; preds = %16, %14
  tail call void @pfree(ptr noundef nonnull %0) #9
  br label %list_delete_cell.exit

17:                                               ; preds = %.split
  %.idx = shl i64 %indvars.iv, 32
  %18 = trunc i64 %indvars.iv to i32
  %19 = ashr exact i64 %.idx, 29
  %20 = getelementptr inbounds i8, ptr %7, i64 %19
  %sext3.i = add i64 %.idx, 4294967296
  %21 = ashr exact i64 %sext3.i, 29
  %22 = getelementptr inbounds i8, ptr %7, i64 %21
  %23 = xor i32 %18, -1
  %24 = add i32 %4, %23
  %25 = sext i32 %24 to i64
  %26 = shl nsw i64 %25, 3
  tail call void @llvm.memmove.p0.p0.i64(ptr align 8 %20, ptr align 8 %22, i64 %26, i1 false)
  %27 = load i32, ptr %3, align 4
  %28 = add i32 %27, -1
  store i32 %28, ptr %3, align 4
  br label %list_delete_cell.exit

list_delete_cell.exit:                            ; preds = %8, %2, %.lr.ph, %17, %list_free.exit.i.i
  %29 = phi ptr [ %0, %17 ], [ null, %list_free.exit.i.i ], [ null, %2 ], [ %0, %.lr.ph ], [ %0, %8 ]
  ret ptr %29
}